; Function Attrs: nounwind uwtable
define hidden noundef ptr @php_sxe_get_iterator(ptr nocapture readnone %0, ptr nocapture noundef readonly %1, i32 noundef %2) #1 {
  %.not = icmp eq i32 %2, 0
  br i1 %.not, label %5, label %4

4:                                                ; preds = %3
  tail call void (ptr, ptr, ...) @zend_throw_error(ptr noundef null, ptr noundef nonnull @.str.23) #14
  br label %16

5:                                                ; preds = %3
  %6 = tail call noalias ptr @_emalloc_96() #14
  tail call void @zend_iterator_init(ptr noundef %6) #14
  %7 = getelementptr inbounds i8, ptr %6, i64 56
  %8 = load ptr, ptr %1, align 8
  %9 = load i32, ptr %8, align 4
  %10 = add i32 %9, 1
  store i32 %10, ptr %8, align 4
  store ptr %8, ptr %7, align 8
  %11 = getelementptr inbounds i8, ptr %6, i64 64
  store i32 776, ptr %11, align 8
  %12 = getelementptr inbounds i8, ptr %6, i64 72
  store ptr @php_sxe_iterator_funcs, ptr %12, align 8
  %13 = load ptr, ptr %1, align 8
  %14 = getelementptr inbounds i8, ptr %13, i64 -96
  %15 = getelementptr inbounds i8, ptr %6, i64 88
  store ptr %14, ptr %15, align 8
  br label %16

16:                                               ; preds = %5, %4
  %.0 = phi ptr [ null, %4 ], [ %6, %5 ]
  ret ptr %.0
}